; Function Attrs: mustprogress uwtable
define hidden void @_ZN3euf9bv_pluginC2ERNS_6egraphE(ptr noundef nonnull align 8 dereferenceable(80) %this, ptr noundef nonnull align 8 dereferenceable(536) %g) unnamed_addr #3 align 2 personality ptr @__gxx_personality_v0 {
entry:
  %g2.i = getelementptr inbounds i8, ptr %this, i64 8
  store ptr %g, ptr %g2.i, align 8
  store ptr getelementptr inbounds ({ [11 x ptr] }, ptr @_ZTVN3euf9bv_pluginE, i64 0, i32 0, i64 2), ptr %this, align 8
  %bv = getelementptr inbounds i8, ptr %this, i64 16
  %0 = load ptr, ptr %g, align 8
  tail call void @_ZN7bv_utilC1ER11ast_manager(ptr noundef nonnull align 8 dereferenceable(24) %bv, ptr noundef nonnull align 8 dereferenceable(976) %0)
  %m_info = getelementptr inbounds i8, ptr %this, i64 40
  %m_undo_split = getelementptr inbounds i8, ptr %this, i64 72
  store ptr null, ptr %m_undo_split, align 8
  tail call void @llvm.memset.p0.i64(ptr noundef nonnull align 8 dereferenceable(25) %m_info, i8 0, i64 25, i1 false)
  ret void
}